Certificate:
    Data:
        Version: 3 (0x2)
        Serial Number: 1 (0x1)
        Signature Algorithm: sha512WithRSAEncryption
        Issuer: CN=ExampleCa2
        Validity
            Not Before: Nov  4 15:13:25 2024 GMT
            Not After : Nov  4 15:13:25 2025 GMT
        Subject: C=IT, ST=Lazio, L=Rome, O=CyberITS, CN=localhost
        Subject Public Key Info:
            Public Key Algorithm: rsaEncryption
                Public-Key: (2048 bit)
                Modulus:
                    00:c8:3d:07:ad:26:9a:18:ed:ad:66:6a:2c:8a:c2:
                    ea:8a:15:01:68:f2:49:f9:72:e6:6b:e0:87:ba:0e:
                    b6:78:05:3a:6f:2e:e2:75:bd:52:f6:e0:c8:fe:a1:
                    e9:82:36:1b:16:ca:0d:50:13:39:d8:0f:79:0d:ba:
                    a2:c4:99:ab:72:19:ea:c7:28:ec:18:8e:69:0a:83:
                    64:82:8b:f7:64:b3:45:40:c9:99:23:15:28:94:4b:
                    3a:b4:cc:9f:f1:63:64:59:71:14:15:21:88:11:ac:
                    c8:d9:c5:c8:e9:b1:1c:a2:50:87:5f:42:d3:af:d2:
                    1e:f4:0c:70:b0:c6:6c:96:53:54:1a:d0:98:3c:95:
                    d2:98:fc:aa:8c:a0:75:8c:d5:e0:3c:1e:1e:b0:59:
                    ae:4c:ed:8e:06:ad:80:44:98:7a:4e:ab:8a:02:40:
                    a6:50:b1:cf:61:85:aa:ec:bd:a5:59:23:fa:fb:8d:
                    9f:d9:30:ae:f5:e0:8b:74:31:59:1a:e8:b7:23:fe:
                    bc:93:12:e3:52:a2:ed:30:f8:c1:e2:3f:cf:28:54:
                    36:93:b0:f1:34:6e:9e:de:9d:22:62:82:3b:f4:8b:
                    a8:3a:c6:d6:80:0a:55:bf:37:be:1f:b5:fc:0a:62:
                    5c:fb:93:1d:3c:1b:17:0f:1f:a0:50:ce:5b:19:b5:
                    5d:f7
                Exponent: 65537 (0x10001)
        X509v3 extensions:
            X509v3 Subject Key Identifier: 
                05:2D:59:E4:7A:FB:C8:98:BA:A0:4C:EB:C1:1D:47:8C:61:C4:22:4F
            X509v3 Basic Constraints: critical
                CA:FALSE
            Netscape Cert Type: 
                SSL Server
            X509v3 Key Usage: 
                Digital Signature, Non Repudiation, Key Encipherment
            X509v3 Extended Key Usage: 
                TLS Web Server Authentication
            X509v3 Subject Alternative Name: 
                DNS:localhost, IP Address:127.0.0.1, IP Address:0:0:0:0:0:0:0:1
            X509v3 Authority Key Identifier: 
                FC:09:61:98:25:93:30:BC:C9:5B:77:BF:57:98:03:1B:82:92:A1:46
    Signature Algorithm: sha512WithRSAEncryption
    Signature Value:
        b1:fe:d1:2d:19:94:c0:19:05:ce:bb:44:b0:80:be:46:64:85:
        c8:2a:84:47:8d:cf:30:04:eb:e4:4d:87:bd:b0:8c:53:f7:52:
        a6:08:78:52:d6:b8:b1:37:c6:a2:ba:f3:28:0f:9b:3e:36:39:
        c0:3d:3c:6c:fd:5b:c7:23:d0:6f:38:9b:27:f3:7b:cb:84:79:
        ff:62:55:01:27:13:06:e2:74:ab:70:6c:26:50:86:88:67:3a:
        05:27:ba:ee:6f:eb:4b:66:cb:ec:43:4b:61:fb:24:88:21:10:
        9b:af:c0:b7:22:08:03:f8:43:1e:1b:44:a5:6f:fb:9e:d9:b5:
        05:f5:4d:f6:b8:92:36:86:bc:52:fa:26:6d:98:e4:a3:bb:3f:
        c9:d1:86:3f:b1:67:5f:c1:93:4d:01:be:41:57:0d:d0:34:e9:
        c7:91:e4:69:5a:62:63:a0:96:44:ee:10:04:31:bf:50:39:99:
        f5:2a:86:fa:1a:8a:98:ba:95:04:49:d2:e1:ba:66:c4:e1:04:
        ca:5a:ee:85:87:66:0a:36:13:7d:22:98:16:07:18:95:5f:ba:
        4e:55:83:7d:cc:f1:b1:8b:51:3b:31:b2:55:df:9a:0e:b7:fb:
        43:ec:99:80:63:8f:2b:66:87:33:e6:66:0e:7c:b9:9d:36:61:
        d6:2d:21:61
-----BEGIN CERTIFICATE-----
MIIDmDCCAoCgAwIBAgIBATANBgkqhkiG9w0BAQ0FADAVMRMwEQYDVQQDDApFeGFt
cGxlQ2EyMB4XDTI0MTEwNDE1MTMyNVoXDTI1MTEwNDE1MTMyNVowUzELMAkGA1UE
BhMCSVQxDjAMBgNVBAgMBUxhemlvMQ0wCwYDVQQHDARSb21lMREwDwYDVQQKDAhD
eWJlcklUUzESMBAGA1UEAwwJbG9jYWxob3N0MIIBIjANBgkqhkiG9w0BAQEFAAOC
AQ8AMIIBCgKCAQEAyD0HrSaaGO2tZmosisLqihUBaPJJ+XLma+CHug62eAU6by7i
db1S9uDI/qHpgjYbFsoNUBM52A95DbqixJmrchnqxyjsGI5pCoNkgov3ZLNFQMmZ
IxUolEs6tMyf8WNkWXEUFSGIEazI2cXI6bEcolCHX0LTr9Ie9AxwsMZsllNUGtCY
PJXSmPyqjKB1jNXgPB4esFmuTO2OBq2ARJh6TquKAkCmULHPYYWq7L2lWSP6+42f
2TCu9eCLdDFZGui3I/68kxLjUqLtMPjB4j/PKFQ2k7DxNG6e3p0iYoI79IuoOsbW
gApVvze+H7X8CmJc+5MdPBsXDx+gUM5bGbVd9wIDAQABo4G0MIGxMB0GA1UdDgQW
BBQFLVnkevvImLqgTOvBHUeMYcQiTzAMBgNVHRMBAf8EAjAAMBEGCWCGSAGG+EIB
AQQEAwIGQDALBgNVHQ8EBAMCBeAwEwYDVR0lBAwwCgYIKwYBBQUHAwEwLAYDVR0R
BCUwI4IJbG9jYWxob3N0hwR/AAABhxAAAAAAAAAAAAAAAAAAAAABMB8GA1UdIwQY
MBaAFPwJYZglkzC8yVt3v1eYAxuCkqFGMA0GCSqGSIb3DQEBDQUAA4IBAQCx/tEt
GZTAGQXOu0SwgL5GZIXIKoRHjc8wBOvkTYe9sIxT91KmCHhS1rixN8aiuvMoD5s+
NjnAPTxs/VvHI9BvOJsn83vLhHn/YlUBJxMG4nSrcGwmUIaIZzoFJ7rub+tLZsvs
Q0th+ySIIRCbr8C3IggD+EMeG0Slb/ue2bUF9U32uJI2hrxS+iZtmOSjuz/J0YY/
sWdfwZNNAb5BVw3QNOnHkeRpWmJjoJZE7hAEMb9QOZn1Kob6GoqYupUESdLhumbE
4QTKWu6Fh2YKNhN9IpgWBxiVX7pOVYN9zPGxi1E7MbJV35oOt/tD7JmAY48rZocz
5mYOfLmdNmHWLSFh
-----END CERTIFICATE-----
