Certificate:
    Data:
        Version: 3 (0x2)
        Serial Number: 1 (0x1)
        Signature Algorithm: sha512WithRSAEncryption
        Issuer: CN=CyberSecurity CA, ST=Italy, C=EU/emailAddress=cybersec@mycert.it, O=Root Cert Authority
        Validity
            Not Before: Oct 28 10:08:13 2024 GMT
            Not After : Oct 28 10:08:13 2025 GMT
        Subject: CN=openGemini.it, C=IT, ST=Rome, O=Root Cert Authority, OU=openGemini.it/emailAddress=openGemini@gmail.com
        Subject Public Key Info:
            Public Key Algorithm: rsaEncryption
                Public-Key: (2048 bit)
                Modulus:
                    00:83:4e:90:34:16:c6:69:a1:dd:8d:4a:82:f3:10:
                    8d:4d:44:66:05:54:fe:db:22:2a:3a:5b:bc:2f:2a:
                    5d:f9:c9:7d:5f:3d:9c:d4:6d:fc:67:41:83:7d:6e:
                    59:8a:f7:52:67:66:2f:39:41:3b:ea:96:86:59:79:
                    10:62:ae:f4:39:6e:49:92:a1:90:1d:2b:4d:31:04:
                    fb:66:b4:e4:2c:7d:a5:3e:d2:83:1a:06:e4:9d:ca:
                    92:0d:fd:1d:7e:6d:cf:df:bc:b7:09:33:4e:1a:ae:
                    a3:db:c4:5b:54:88:36:e4:b1:27:4b:b8:6a:d5:d0:
                    40:c1:22:eb:1d:54:df:fc:fe:b4:df:de:0b:5e:46:
                    e8:2f:d3:fe:78:12:89:0d:26:65:20:13:3f:9e:17:
                    6f:ae:93:5d:9c:b5:16:20:4d:f2:31:9f:fe:f3:8b:
                    ad:33:d2:24:c2:35:95:25:90:2b:37:10:d7:11:af:
                    01:de:2f:c7:f9:44:20:7e:39:f6:04:a4:a4:91:94:
                    0b:e9:96:ab:ef:63:dc:63:e4:f7:88:01:2c:9d:20:
                    a2:d4:c4:e9:6a:ce:c6:55:89:82:9a:41:2e:7d:76:
                    65:36:a7:4d:69:3f:36:d4:e7:f6:fa:a8:0d:ed:a7:
                    62:a8:97:6a:9b:0b:54:97:70:eb:20:01:60:9f:b5:
                    ff:c9
                Exponent: 65537 (0x10001)
        X509v3 extensions:
            X509v3 Basic Constraints: 
                CA:FALSE
            X509v3 Subject Key Identifier: 
                F5:2F:41:77:A7:AB:FF:07:A7:78:0C:F4:36:F1:60:6F:E8:84:B6:98
            X509v3 Authority Key Identifier: 
                E5:E1:20:DB:09:D6:67:6B:F0:6C:81:57:26:B5:CC:69:8F:14:3D:F1
    Signature Algorithm: sha512WithRSAEncryption
    Signature Value:
        d6:14:bc:bf:0a:2f:00:09:53:80:4f:f2:4b:15:18:5a:6d:0b:
        4d:82:db:e6:54:b1:41:bd:35:8e:36:8c:53:92:82:a4:86:bf:
        34:7d:da:98:71:37:c7:64:2b:85:c1:37:a0:4e:2c:27:15:e0:
        58:1a:be:12:b4:24:b7:0b:c7:85:29:84:42:e5:b9:0a:9a:39:
        bb:03:72:3a:01:c5:15:91:8a:88:0f:a0:14:a7:b3:95:fd:75:
        dc:7d:52:2c:29:27:1a:29:88:46:3f:86:7f:51:fb:2b:43:68:
        d9:02:61:bd:83:da:60:ab:f0:df:c9:9d:67:ca:9d:e0:b8:85:
        ec:6d:44:d1:59:ae:a0:31:e3:27:9e:8d:ce:c4:3d:5d:d9:15:
        ef:4e:ca:0c:d6:bf:6b:be:74:3c:60:57:46:5c:36:47:8f:ba:
        28:78:7c:05:9e:0b:ef:a0:5e:60:8e:05:ec:c8:e1:ce:25:8c:
        36:42:3c:80:aa:7f:5a:a9:33:34:b9:8f:a7:7e:d9:56:68:11:
        3a:28:3a:c4:74:3d:3e:da:da:84:b4:65:7a:5a:31:0f:da:89:
        c7:6b:ba:18:2b:36:45:00:41:84:65:87:96:73:4c:94:63:78:
        49:3b:09:b9:df:09:b4:da:41:a3:23:82:9c:30:ac:00:7b:21:
        a5:72:ba:75
-----BEGIN CERTIFICATE-----
MIID0TCCArmgAwIBAgIBATANBgkqhkiG9w0BAQ0FADB5MRkwFwYDVQQDDBBDeWJl
clNlY3VyaXR5IENBMQ4wDAYDVQQIDAVJdGFseTELMAkGA1UEBhMCRVUxITAfBgkq
hkiG9w0BCQEWEmN5YmVyc2VjQG15Y2VydC5pdDEcMBoGA1UECgwTUm9vdCBDZXJ0
IEF1dGhvcml0eTAeFw0yNDEwMjgxMDA4MTNaFw0yNTEwMjgxMDA4MTNaMIGPMRYw
FAYDVQQDDA1vcGVuR2VtaW5pLml0MQswCQYDVQQGEwJJVDENMAsGA1UECAwEUm9t
ZTEcMBoGA1UECgwTUm9vdCBDZXJ0IEF1dGhvcml0eTEWMBQGA1UECwwNb3Blbkdl
bWluaS5pdDEjMCEGCSqGSIb3DQEJARYUb3BlbkdlbWluaUBnbWFpbC5jb20wggEi
MA0GCSqGSIb3DQEBAQUAA4IBDwAwggEKAoIBAQCDTpA0FsZpod2NSoLzEI1NRGYF
VP7bIio6W7wvKl35yX1fPZzUbfxnQYN9blmK91JnZi85QTvqloZZeRBirvQ5bkmS
oZAdK00xBPtmtOQsfaU+0oMaBuSdypIN/R1+bc/fvLcJM04arqPbxFtUiDbksSdL
uGrV0EDBIusdVN/8/rTf3gteRugv0/54EokNJmUgEz+eF2+uk12ctRYgTfIxn/7z
i60z0iTCNZUlkCs3ENcRrwHeL8f5RCB+OfYEpKSRlAvplqvvY9xj5PeIASydIKLU
xOlqzsZViYKaQS59dmU2p01pPzbU5/b6qA3tp2Kol2qbC1SXcOsgAWCftf/JAgMB
AAGjTTBLMAkGA1UdEwQCMAAwHQYDVR0OBBYEFPUvQXenq/8Hp3gM9DbxYG/ohLaY
MB8GA1UdIwQYMBaAFOXhINsJ1mdr8GyBVya1zGmPFD3xMA0GCSqGSIb3DQEBDQUA
A4IBAQDWFLy/Ci8ACVOAT/JLFRhabQtNgtvmVLFBvTWONoxTkoKkhr80fdqYcTfH
ZCuFwTegTiwnFeBYGr4StCS3C8eFKYRC5bkKmjm7A3I6AcUVkYqID6AUp7OV/XXc
fVIsKScaKYhGP4Z/UfsrQ2jZAmG9g9pgq/DfyZ1nyp3guIXsbUTRWa6gMeMnno3O
xD1d2RXvTsoM1r9rvnQ8YFdGXDZHj7ooeHwFngvvoF5gjgXsyOHOJYw2QjyAqn9a
qTM0uY+nftlWaBE6KDrEdD0+2tqEtGV6WjEP2onHa7oYKzZFAEGEZYeWc0yUY3hJ
Owm53wm02kGjI4KcMKwAeyGlcrp1
-----END CERTIFICATE-----
